target datalayout = "e-m:e-p270:32:32-p271:32:32-p272:64:64-i64:64-i128:128-f80:128-n8:16:32:64-S128"
target triple = "x86_64-pc-linux-gnu"

%struct.stats_state = type { i64, i64, i64, i64, float, i32, i32, i32, i32, i8, i8, i8, i8 }

@hashpower = dso_local global i32 16, align 4
@primary_hashtable = internal global ptr null, align 8
@stderr = external global ptr, align 8
@.str = private unnamed_addr constant [27 x i8] c"Failed to init hashtable.\0A\00", align 1
@stats_state = external global %struct.stats_state, align 8

; Function Attrs: nounwind uwtable
define dso_local void @assoc_init(i32 noundef %0) #0 {
  %2 = alloca i32, align 4
  store i32 %0, ptr %2, align 4, !tbaa !4
  %3 = load i32, ptr %2, align 4, !tbaa !4
  %4 = icmp ne i32 %3, 0
  br i1 %4, label %5, label %7

5:                                                ; preds = %1
  %6 = load i32, ptr %2, align 4, !tbaa !4
  store i32 %6, ptr @hashpower, align 4, !tbaa !4
  br label %7

7:                                                ; preds = %5, %1
  %8 = load i32, ptr @hashpower, align 4, !tbaa !4
  %9 = zext i32 %8 to i64
  %10 = shl i64 1, %9
  %11 = call noalias ptr @calloc(i64 noundef %10, i64 noundef 8) #8
  store ptr %11, ptr @primary_hashtable, align 8, !tbaa !8
  %12 = load ptr, ptr @primary_hashtable, align 8, !tbaa !8
  %13 = icmp ne ptr %12, null
  br i1 %13, label %17, label %14

14:                                               ; preds = %7
  %15 = load ptr, ptr @stderr, align 8, !tbaa !11
  %16 = call i32 (ptr, ptr, ...) @fprintf(ptr noundef %15, ptr noundef @.str) #9
  call void @exit(i32 noundef 1) #10
  unreachable

17:                                               ; preds = %7
  call void @STATS_LOCK()
  %18 = load i32, ptr @hashpower, align 4, !tbaa !4
  store i32 %18, ptr getelementptr inbounds nuw (%struct.stats_state, ptr @stats_state, i32 0, i32 7), align 4, !tbaa !13
  %19 = load i32, ptr @hashpower, align 4, !tbaa !4
  %20 = zext i32 %19 to i64
  %21 = shl i64 1, %20
  %22 = mul i64 %21, 8
  store i64 %22, ptr getelementptr inbounds nuw (%struct.stats_state, ptr @stats_state, i32 0, i32 3), align 8, !tbaa !18
  call void @STATS_UNLOCK()
  ret void
}