; Function Attrs: nounwind uwtable
define dso_local void @assoc_init(i32 noundef %0) local_unnamed_addr #0 {
  %.not = icmp eq i32 %0, 0
  br i1 %.not, label %._crit_edge, label %2

._crit_edge:                                      ; preds = %1
  %.pre = load i32, ptr @hashpower, align 4, !tbaa !4
  br label %3

2:                                                ; preds = %1
  store i32 %0, ptr @hashpower, align 4, !tbaa !4
  br label %3

3:                                                ; preds = %._crit_edge, %2
  %4 = phi i32 [ %.pre, %._crit_edge ], [ %0, %2 ]
  %5 = zext nneg i32 %4 to i64
  %6 = shl nuw i64 1, %5
  %7 = tail call noalias ptr @calloc(i64 noundef %6, i64 noundef 8) #15
  store ptr %7, ptr @primary_hashtable, align 8, !tbaa !8
  %.not2 = icmp eq ptr %7, null
  br i1 %.not2, label %8, label %11

8:                                                ; preds = %3
  %9 = load ptr, ptr @stderr, align 8, !tbaa !11
  %10 = tail call i64 @fwrite(ptr nonnull @.str, i64 26, i64 1, ptr %9) #16
  tail call void @exit(i32 noundef 1) #17
  unreachable

11:                                               ; preds = %3
  tail call void @STATS_LOCK() #18
  %12 = load i32, ptr @hashpower, align 4, !tbaa !4
  store i32 %12, ptr getelementptr inbounds nuw (i8, ptr @stats_state, i64 44), align 4, !tbaa !13
  %13 = zext nneg i32 %12 to i64
  %14 = shl i64 8, %13
  store i64 %14, ptr getelementptr inbounds nuw (i8, ptr @stats_state, i64 24), align 8, !tbaa !18
  tail call void @STATS_UNLOCK() #18
  ret void
}